target datalayout = "e-m:e-p270:32:32-p271:32:32-p272:64:64-i64:64-i128:128-f80:128-n8:16:32:64-S128"
target triple = "x86_64-pc-linux-gnu"

%"class.ncnn::CpuSet" = type { %struct.cpu_set_t }
%struct.cpu_set_t = type { [16 x i64] }
%struct.ident_t = type { i32, i32, i32, i32, ptr }
%"struct.std::_Vector_base" = type { %"struct.std::_Vector_base<int, std::allocator<int>>::_Vector_impl" }
%"struct.std::_Vector_base<int, std::allocator<int>>::_Vector_impl" = type { %"struct.std::_Vector_base<int, std::allocator<int>>::_Vector_impl_data" }
%"struct.std::_Vector_base<int, std::allocator<int>>::_Vector_impl_data" = type { ptr, ptr, ptr }

@stderr = external global ptr, align 8
@.str.17 = private unnamed_addr constant [2 x i8] c"\0A\00", align 1
@1 = private unnamed_addr constant %struct.ident_t { i32 0, i32 514, i32 0, i32 22, ptr @0 }, align 8
@.str.33 = private unnamed_addr constant [17 x i8] c"syscall error %d\00", align 1

; Function Attrs: noinline noreturn nounwind uwtable
define linkonce_odr hidden void @__clang_call_terminate(ptr noundef %0) #11 comdat {
  %2 = call ptr @__cxa_begin_catch(ptr %0) #17
  call void @_ZSt9terminatev() #19
  unreachable
}

; Function Attrs: mustprogress nounwind uwtable
define linkonce_odr hidden noundef nonnull align 4 dereferenceable(4) ptr @_ZNSt6vectorIiSaIiEEixEm(ptr noundef nonnull align 8 dereferenceable(24) %0, i64 noundef %1) #2 comdat align 2 {
  %3 = alloca ptr, align 8
  %4 = alloca i64, align 8
  store ptr %0, ptr %3, align 8, !tbaa !31
  store i64 %1, ptr %4, align 8, !tbaa !11
  %5 = load ptr, ptr %3, align 8
  %6 = getelementptr inbounds nuw %"struct.std::_Vector_base", ptr %5, i32 0, i32 0
  %7 = getelementptr inbounds nuw %"struct.std::_Vector_base<int, std::allocator<int>>::_Vector_impl_data", ptr %6, i32 0, i32 0
  %8 = load ptr, ptr %7, align 8, !tbaa !38
  %9 = load i64, ptr %4, align 8, !tbaa !11
  %10 = getelementptr inbounds nuw i32, ptr %8, i64 %9
  ret ptr %10
}

; Function Attrs: mustprogress nounwind uwtable
define internal noundef i32 @_ZL18set_sched_affinityRKN4ncnn6CpuSetE(ptr noundef nonnull align 8 dereferenceable(128) %0) #2 {
  %2 = alloca i32, align 4
  %3 = alloca ptr, align 8
  %4 = alloca i32, align 4
  %5 = alloca i32, align 4
  %6 = alloca i32, align 4
  store ptr %0, ptr %3, align 8, !tbaa !4
  call void @llvm.lifetime.start.p0(i64 4, ptr %4) #17
  %7 = call i64 (i64, ...) @syscall(i64 noundef 186) #17
  %8 = trunc i64 %7 to i32
  store i32 %8, ptr %4, align 4, !tbaa !9
  call void @llvm.lifetime.start.p0(i64 4, ptr %5) #17
  %9 = load i32, ptr %4, align 4, !tbaa !9
  %10 = load ptr, ptr %3, align 8, !tbaa !4
  %11 = getelementptr inbounds nuw %"class.ncnn::CpuSet", ptr %10, i32 0, i32 0
  %12 = call i64 (i64, ...) @syscall(i64 noundef 203, i32 noundef %9, i64 noundef 128, ptr noundef %11) #17
  %13 = trunc i64 %12 to i32
  store i32 %13, ptr %5, align 4, !tbaa !9
  %14 = load i32, ptr %5, align 4, !tbaa !9
  %15 = icmp ne i32 %14, 0
  br i1 %15, label %16, label %25

16:                                               ; preds = %1
  br label %17

17:                                               ; preds = %16
  %18 = load ptr, ptr @stderr, align 8, !tbaa !15
  %19 = load i32, ptr %5, align 4, !tbaa !9
  %20 = call i32 (ptr, ptr, ...) @fprintf(ptr noundef %18, ptr noundef @.str.33, i32 noundef %19) #17
  %21 = load ptr, ptr @stderr, align 8, !tbaa !15
  %22 = call i32 (ptr, ptr, ...) @fprintf(ptr noundef %21, ptr noundef @.str.17) #17
  br label %23

23:                                               ; preds = %17
  br label %24

24:                                               ; preds = %23
  store i32 -1, ptr %2, align 4
  store i32 1, ptr %6, align 4
  br label %26

25:                                               ; preds = %1
  store i32 0, ptr %2, align 4
  store i32 1, ptr %6, align 4
  br label %26

26:                                               ; preds = %25, %24
  call void @llvm.lifetime.end.p0(i64 4, ptr %5) #17
  call void @llvm.lifetime.end.p0(i64 4, ptr %4) #17
  %27 = load i32, ptr %2, align 4
  ret i32 %27
}

; Function Attrs: alwaysinline norecurse nounwind uwtable
define internal void @_ZN4ncnn23set_cpu_thread_affinityERKNS_6CpuSetE.omp_outlined(ptr noalias noundef %0, ptr noalias noundef %1, ptr noundef nonnull align 4 dereferenceable(4) %2, ptr noundef nonnull align 8 dereferenceable(24) %3, ptr noundef nonnull align 8 dereferenceable(128) %4) #16 personality ptr @__gxx_personality_v0 {
  %6 = alloca ptr, align 8
  %7 = alloca ptr, align 8
  %8 = alloca ptr, align 8
  %9 = alloca ptr, align 8
  %10 = alloca ptr, align 8
  %11 = alloca ptr, align 8
  %12 = alloca i32, align 4
  %13 = alloca i32, align 4
  %14 = alloca i32, align 4
  %15 = alloca i32, align 4
  %16 = alloca i32, align 4
  %17 = alloca i32, align 4
  %18 = alloca i32, align 4
  %19 = alloca i32, align 4
  %20 = alloca i32, align 4
  store ptr %0, ptr %6, align 8, !tbaa !39
  store ptr %1, ptr %7, align 8, !tbaa !39
  store ptr %2, ptr %8, align 8, !tbaa !39
  store ptr %3, ptr %9, align 8, !tbaa !31
  store ptr %4, ptr %10, align 8, !tbaa !4
  %21 = load ptr, ptr %8, align 8, !tbaa !39
  %22 = load ptr, ptr %9, align 8, !tbaa !31
  %23 = load ptr, ptr %10, align 8, !tbaa !4
  store ptr %23, ptr %11, align 8
  call void @llvm.lifetime.start.p0(i64 4, ptr %12) #17
  call void @llvm.lifetime.start.p0(i64 4, ptr %13) #17
  %24 = load i32, ptr %21, align 4, !tbaa !9
  store i32 %24, ptr %13, align 4, !tbaa !9
  call void @llvm.lifetime.start.p0(i64 4, ptr %14) #17
  %25 = load i32, ptr %13, align 4, !tbaa !9
  %26 = sub nsw i32 %25, 0
  %27 = sdiv i32 %26, 1
  %28 = sub nsw i32 %27, 1
  store i32 %28, ptr %14, align 4, !tbaa !9
  call void @llvm.lifetime.start.p0(i64 4, ptr %15) #17
  store i32 0, ptr %15, align 4, !tbaa !9
  call void @llvm.lifetime.end.p0(i64 4, ptr %15) #17
  %29 = load i32, ptr %13, align 4, !tbaa !9
  %30 = icmp slt i32 0, %29
  br i1 %30, label %31, label %68

31:                                               ; preds = %5
  call void @llvm.lifetime.start.p0(i64 4, ptr %16) #17
  store i32 0, ptr %16, align 4, !tbaa !9
  call void @llvm.lifetime.start.p0(i64 4, ptr %17) #17
  %32 = load i32, ptr %14, align 4, !tbaa !9
  store i32 %32, ptr %17, align 4, !tbaa !9
  call void @llvm.lifetime.start.p0(i64 4, ptr %18) #17
  store i32 1, ptr %18, align 4, !tbaa !9
  call void @llvm.lifetime.start.p0(i64 4, ptr %19) #17
  store i32 0, ptr %19, align 4, !tbaa !9
  call void @llvm.lifetime.start.p0(i64 4, ptr %20) #17
  %33 = load ptr, ptr %6, align 8
  %34 = load i32, ptr %33, align 4, !tbaa !9
  call void @__kmpc_for_static_init_4(ptr @1, i32 %34, i32 34, ptr %19, ptr %16, ptr %17, ptr %18, i32 1, i32 1)
  %35 = load i32, ptr %17, align 4, !tbaa !9
  %36 = load i32, ptr %14, align 4, !tbaa !9
  %37 = icmp sgt i32 %35, %36
  br i1 %37, label %38, label %40

38:                                               ; preds = %31
  %39 = load i32, ptr %14, align 4, !tbaa !9
  br label %42

40:                                               ; preds = %31
  %41 = load i32, ptr %17, align 4, !tbaa !9
  br label %42

42:                                               ; preds = %40, %38
  %43 = phi i32 [ %39, %38 ], [ %41, %40 ]
  store i32 %43, ptr %17, align 4, !tbaa !9
  %44 = load i32, ptr %16, align 4, !tbaa !9
  store i32 %44, ptr %12, align 4, !tbaa !9
  br label %45

45:                                               ; preds = %61, %42
  %46 = load i32, ptr %12, align 4, !tbaa !9
  %47 = load i32, ptr %17, align 4, !tbaa !9
  %48 = icmp sle i32 %46, %47
  br i1 %48, label %50, label %49

49:                                               ; preds = %45
  br label %64

50:                                               ; preds = %45
  %51 = load i32, ptr %12, align 4, !tbaa !9
  %52 = mul nsw i32 %51, 1
  %53 = add nsw i32 0, %52
  store i32 %53, ptr %20, align 4, !tbaa !9
  %54 = load ptr, ptr %11, align 8, !tbaa !4
  %55 = invoke noundef i32 @_ZL18set_sched_affinityRKN4ncnn6CpuSetE(ptr noundef nonnull align 8 dereferenceable(128) %54)
          to label %56 unwind label %69

56:                                               ; preds = %50
  %57 = load i32, ptr %20, align 4, !tbaa !9
  %58 = sext i32 %57 to i64
  %59 = call noundef nonnull align 4 dereferenceable(4) ptr @_ZNSt6vectorIiSaIiEEixEm(ptr noundef nonnull align 8 dereferenceable(24) %22, i64 noundef %58) #17
  store i32 %55, ptr %59, align 4, !tbaa !9
  br label %60

60:                                               ; preds = %56
  br label %61

61:                                               ; preds = %60
  %62 = load i32, ptr %12, align 4, !tbaa !9
  %63 = add nsw i32 %62, 1
  store i32 %63, ptr %12, align 4, !tbaa !9
  br label %45

64:                                               ; preds = %49
  br label %65

65:                                               ; preds = %64
  %66 = load ptr, ptr %6, align 8
  %67 = load i32, ptr %66, align 4, !tbaa !9
  call void @__kmpc_for_static_fini(ptr @1, i32 %67)
  call void @llvm.lifetime.end.p0(i64 4, ptr %20) #17
  call void @llvm.lifetime.end.p0(i64 4, ptr %19) #17
  call void @llvm.lifetime.end.p0(i64 4, ptr %18) #17
  call void @llvm.lifetime.end.p0(i64 4, ptr %17) #17
  call void @llvm.lifetime.end.p0(i64 4, ptr %16) #17
  br label %68

68:                                               ; preds = %65, %5
  call void @llvm.lifetime.end.p0(i64 4, ptr %14) #17
  call void @llvm.lifetime.end.p0(i64 4, ptr %13) #17
  call void @llvm.lifetime.end.p0(i64 4, ptr %12) #17
  ret void

69:                                               ; preds = %50
  %70 = landingpad { ptr, i32 }
          catch ptr null
  %71 = extractvalue { ptr, i32 } %70, 0
  call void @__clang_call_terminate(ptr %71) #19
  unreachable
}