; Function Attrs: alwaysinline norecurse nounwind uwtable
define internal void @_ZN4ncnn23set_cpu_thread_affinityERKNS_6CpuSetE.omp_outlined(ptr noalias noundef readonly captures(none) %0, ptr noalias readnone captures(none) %1, ptr noundef nonnull readonly align 4 captures(none) dereferenceable(4) %2, ptr noundef nonnull readonly align 8 captures(none) dereferenceable(24) %3, ptr noundef nonnull align 8 dereferenceable(128) %4) #17 personality ptr @__gxx_personality_v0 {
  %6 = alloca i32, align 4
  %7 = alloca i32, align 4
  %8 = alloca i32, align 4
  %9 = alloca i32, align 4
  %10 = load i32, ptr %2, align 4, !tbaa !10
  %11 = icmp sgt i32 %10, 0
  br i1 %11, label %12, label %31

12:                                               ; preds = %5
  %13 = add nsw i32 %10, -1
  call void @llvm.lifetime.start.p0(i64 4, ptr nonnull %6) #18
  store i32 0, ptr %6, align 4, !tbaa !10
  call void @llvm.lifetime.start.p0(i64 4, ptr nonnull %7) #18
  store i32 %13, ptr %7, align 4, !tbaa !10
  call void @llvm.lifetime.start.p0(i64 4, ptr nonnull %8) #18
  store i32 1, ptr %8, align 4, !tbaa !10
  call void @llvm.lifetime.start.p0(i64 4, ptr nonnull %9) #18
  store i32 0, ptr %9, align 4, !tbaa !10
  %14 = load i32, ptr %0, align 4, !tbaa !10
  call void @__kmpc_for_static_init_4(ptr nonnull @1, i32 %14, i32 34, ptr nonnull %9, ptr nonnull %6, ptr nonnull %7, ptr nonnull %8, i32 1, i32 1)
  %15 = load i32, ptr %7, align 4, !tbaa !10
  %16 = call i32 @llvm.smin.i32(i32 %15, i32 %13)
  store i32 %16, ptr %7, align 4, !tbaa !10
  %17 = load i32, ptr %6, align 4, !tbaa !10
  %.not14 = icmp sgt i32 %17, %16
  br i1 %.not14, label %._crit_edge, label %.lr.ph.preheader

.lr.ph.preheader:                                 ; preds = %12
  %18 = sext i32 %17 to i64
  br label %.lr.ph

.lr.ph:                                           ; preds = %.lr.ph.preheader, %_ZL18set_sched_affinityRKN4ncnn6CpuSetE.exit
  %indvars.iv = phi i64 [ %18, %.lr.ph.preheader ], [ %indvars.iv.next, %_ZL18set_sched_affinityRKN4ncnn6CpuSetE.exit ]
  %19 = call i64 (i64, ...) @syscall(i64 noundef 186) #18
  %20 = trunc i64 %19 to i32
  %21 = call i64 (i64, ...) @syscall(i64 noundef 203, i32 noundef %20, i64 noundef 128, ptr noundef nonnull align 8 dereferenceable(128) %4) #18
  %22 = trunc i64 %21 to i32
  %.not.i = icmp eq i32 %22, 0
  br i1 %.not.i, label %_ZL18set_sched_affinityRKN4ncnn6CpuSetE.exit, label %23

23:                                               ; preds = %.lr.ph
  %24 = load ptr, ptr @stderr, align 8, !tbaa !15
  %25 = call i32 (ptr, ptr, ...) @fprintf(ptr noundef %24, ptr noundef nonnull @.str.33, i32 noundef %22) #28
  %26 = load ptr, ptr @stderr, align 8, !tbaa !15
  %fputc.i = call i32 @fputc(i32 10, ptr %26)
  br label %_ZL18set_sched_affinityRKN4ncnn6CpuSetE.exit

_ZL18set_sched_affinityRKN4ncnn6CpuSetE.exit:     ; preds = %.lr.ph, %23
  %.0.i = phi i32 [ -1, %23 ], [ 0, %.lr.ph ]
  %27 = load ptr, ptr %3, align 8, !tbaa !35
  %28 = getelementptr inbounds nuw i32, ptr %27, i64 %indvars.iv
  store i32 %.0.i, ptr %28, align 4, !tbaa !10
  %indvars.iv.next = add nsw i64 %indvars.iv, 1
  %29 = load i32, ptr %7, align 4, !tbaa !10
  %30 = sext i32 %29 to i64
  %.not.not = icmp slt i64 %indvars.iv, %30
  br i1 %.not.not, label %.lr.ph, label %._crit_edge

._crit_edge:                                      ; preds = %_ZL18set_sched_affinityRKN4ncnn6CpuSetE.exit, %12
  call void @__kmpc_for_static_fini(ptr nonnull @1, i32 %14)
  call void @llvm.lifetime.end.p0(i64 4, ptr nonnull %9) #18
  call void @llvm.lifetime.end.p0(i64 4, ptr nonnull %8) #18
  call void @llvm.lifetime.end.p0(i64 4, ptr nonnull %7) #18
  call void @llvm.lifetime.end.p0(i64 4, ptr nonnull %6) #18
  br label %31

31:                                               ; preds = %._crit_edge, %5
  ret void
}